; Function Attrs: mustprogress nounwind uwtable
define dso_local void @_ZN5clang16PseudoObjectExprC2ENS_4Stmt10EmptyShellEj(ptr nocapture noundef nonnull align 8 dereferenceable(16) %0, i32 noundef %1) unnamed_addr #1 align 2 {
  store i8 18, ptr %0, align 8
  %3 = load i8, ptr @_ZN5clang4Stmt17StatisticsEnabledE, align 1
  %4 = trunc i8 %3 to i1
  br i1 %4, label %5, label %_ZN5clang4ExprC2ENS_4Stmt9StmtClassENS1_10EmptyShellE.exit

5:                                                ; preds = %2
  tail call void @_ZN5clang4Stmt12addStmtClassENS0_9StmtClassE(i32 noundef 18) #28
  br label %_ZN5clang4ExprC2ENS_4Stmt9StmtClassENS1_10EmptyShellE.exit

_ZN5clang4ExprC2ENS_4Stmt9StmtClassENS1_10EmptyShellE.exit: ; preds = %2, %5
  %6 = getelementptr inbounds nuw i8, ptr %0, i64 8
  store i64 0, ptr %6, align 8
  %7 = add i32 %1, 1
  %8 = load i64, ptr %0, align 8
  %9 = and i32 %7, 65535
  %10 = zext nneg i32 %9 to i64
  %11 = shl nuw nsw i64 %10, 32
  %12 = and i64 %8, -281470681743361
  %13 = or disjoint i64 %12, %11
  store i64 %13, ptr %0, align 8
  ret void
}